; Function Attrs: nofree norecurse nosync nounwind memory(argmem: readwrite) uwtable
define hidden void @cfl_subsample_lbd_422_4x16_c(ptr nocapture noundef readonly %0, i32 noundef %1, ptr nocapture noundef writeonly %2) #5 {
  %4 = sext i32 %1 to i64
  br label %.preheader.us.i

.preheader.us.i:                                  ; preds = %._crit_edge.us.i, %3
  %.01420.us.i = phi i32 [ %20, %._crit_edge.us.i ], [ 0, %3 ]
  %.01519.us.i = phi ptr [ %18, %._crit_edge.us.i ], [ %0, %3 ]
  %.01618.us.i = phi ptr [ %19, %._crit_edge.us.i ], [ %2, %3 ]
  br label %5

5:                                                ; preds = %5, %.preheader.us.i
  %6 = phi i1 [ true, %.preheader.us.i ], [ false, %5 ]
  %indvars.iv.i = phi i64 [ 0, %.preheader.us.i ], [ 2, %5 ]
  %7 = getelementptr inbounds i8, ptr %.01519.us.i, i64 %indvars.iv.i
  %8 = load i8, ptr %7, align 1
  %9 = zext i8 %8 to i16
  %10 = or disjoint i64 %indvars.iv.i, 1
  %11 = getelementptr inbounds i8, ptr %.01519.us.i, i64 %10
  %12 = load i8, ptr %11, align 1
  %13 = zext i8 %12 to i16
  %14 = add nuw nsw i16 %13, %9
  %15 = shl nuw nsw i16 %14, 2
  %16 = lshr exact i64 %indvars.iv.i, 1
  %17 = getelementptr inbounds i16, ptr %.01618.us.i, i64 %16
  store i16 %15, ptr %17, align 2
  br i1 %6, label %5, label %._crit_edge.us.i, !llvm.loop !21

._crit_edge.us.i:                                 ; preds = %5
  %18 = getelementptr inbounds i8, ptr %.01519.us.i, i64 %4
  %19 = getelementptr inbounds i8, ptr %.01618.us.i, i64 64
  %20 = add nuw nsw i32 %.01420.us.i, 1
  %exitcond.not.i = icmp eq i32 %20, 16
  br i1 %exitcond.not.i, label %cfl_luma_subsampling_422_lbd_c.exit, label %.preheader.us.i, !llvm.loop !22

cfl_luma_subsampling_422_lbd_c.exit:              ; preds = %._crit_edge.us.i
  ret void
}